target datalayout = "e-m:e-p270:32:32-p271:32:32-p272:64:64-i64:64-i128:128-f80:128-n8:16:32:64-S128"
target triple = "x86_64-pc-linux-gnu"

%"struct.Luau::FValue" = type { i8, i8, ptr, ptr }
%"class.doctest::String" = type { %union.anon }
%union.anon = type { %"struct.doctest::String::view", [8 x i8] }
%"struct.doctest::String::view" = type { ptr, i32, i32 }
%"class.std::unique_ptr" = type { %"struct.std::__uniq_ptr_data" }
%"struct.std::__uniq_ptr_data" = type { %"class.std::__uniq_ptr_impl" }
%"class.std::__uniq_ptr_impl" = type { %"class.std::tuple" }
%"class.std::tuple" = type { %"struct.std::_Tuple_impl" }
%"struct.std::_Tuple_impl" = type { %"struct.std::_Tuple_impl.8", %"struct.std::_Head_base.9" }
%"struct.std::_Tuple_impl.8" = type { %"struct.std::_Head_base" }
%"struct.std::_Head_base" = type { ptr }
%"struct.std::_Head_base.9" = type { ptr }
%"struct.doctest::detail::Subcase" = type { %"struct.doctest::SubcaseSignature", i8, [7 x i8] }
%"struct.doctest::SubcaseSignature" = type <{ %"class.doctest::String", ptr, i32, [4 x i8] }>
%struct.ScopedFValue = type <{ ptr, i8, [7 x i8] }>
%class.anon.735 = type { i8 }

@.str.65 = private unnamed_addr constant [114 x i8] c"generated/home/dtcxzyw/WorkSpace/Projects/compilers/llvm-opt-benchmark/bench/luau/luau/tests/Conformance.test.cpp\00", align 1
@codegen = external global i8, align 1
@_ZN5FFlag37LuauCodegenFixSplitStoreConstMismatchE = external global %"struct.Luau::FValue", align 8
@.str.504 = private unnamed_addr constant [8 x i8] c"Checked\00", align 1
@_ZN5FFlag23DebugLuauAbortingChecksE = external global %"struct.Luau::FValue", align 8
@.str.505 = private unnamed_addr constant [8 x i8] c"Regular\00", align 1
@.str.506 = private unnamed_addr constant [11 x i8] c"native.lua\00", align 1

; Function Attrs: mustprogress nounwind uwtable
define linkonce_odr dso_local noundef nonnull align 8 dereferenceable(8) ptr @_ZNSt10_Head_baseILm1EPFvP9lua_StateELb0EE7_M_headERS4_(ptr noundef nonnull align 8 dereferenceable(8) %0) #1 comdat align 2 {
  %2 = alloca ptr, align 8
  store ptr %0, ptr %2, align 8
  %3 = load ptr, ptr %2, align 8
  %4 = getelementptr inbounds %"struct.std::_Head_base", ptr %3, i32 0, i32 0
  ret ptr %4
}

; Function Attrs: mustprogress nounwind uwtable
define linkonce_odr dso_local noundef nonnull align 8 dereferenceable(8) ptr @_ZNSt11_Tuple_implILm1EJPFvP9lua_StateEEE7_M_headERS4_(ptr noundef nonnull align 8 dereferenceable(8) %0) #1 comdat align 2 {
  %2 = alloca ptr, align 8
  store ptr %0, ptr %2, align 8
  %3 = load ptr, ptr %2, align 8
  %4 = call noundef nonnull align 8 dereferenceable(8) ptr @_ZNSt10_Head_baseILm1EPFvP9lua_StateELb0EE7_M_headERS4_(ptr noundef nonnull align 8 dereferenceable(8) %3) #16
  ret ptr %4
}

; Function Attrs: mustprogress nounwind uwtable
define linkonce_odr dso_local noundef nonnull align 8 dereferenceable(8) ptr @_ZNSt10_Head_baseILm0EP9lua_StateLb0EE7_M_headERS2_(ptr noundef nonnull align 8 dereferenceable(8) %0) #1 comdat align 2 {
  %2 = alloca ptr, align 8
  store ptr %0, ptr %2, align 8
  %3 = load ptr, ptr %2, align 8
  %4 = getelementptr inbounds %"struct.std::_Head_base.9", ptr %3, i32 0, i32 0
  ret ptr %4
}

; Function Attrs: mustprogress nounwind uwtable
define linkonce_odr dso_local noundef nonnull align 8 dereferenceable(8) ptr @_ZSt12__get_helperILm1EPFvP9lua_StateEJEERT0_RSt11_Tuple_implIXT_EJS4_DpT1_EE(ptr noundef nonnull align 8 dereferenceable(8) %0) #1 comdat {
  %2 = alloca ptr, align 8
  store ptr %0, ptr %2, align 8
  %3 = load ptr, ptr %2, align 8
  %4 = call noundef nonnull align 8 dereferenceable(8) ptr @_ZNSt11_Tuple_implILm1EJPFvP9lua_StateEEE7_M_headERS4_(ptr noundef nonnull align 8 dereferenceable(8) %3) #16
  ret ptr %4
}

; Function Attrs: mustprogress nounwind uwtable
define linkonce_odr dso_local noundef nonnull align 8 dereferenceable(8) ptr @_ZNSt11_Tuple_implILm0EJP9lua_StatePFvS1_EEE7_M_headERS4_(ptr noundef nonnull align 8 dereferenceable(16) %0) #1 comdat align 2 {
  %2 = alloca ptr, align 8
  store ptr %0, ptr %2, align 8
  %3 = load ptr, ptr %2, align 8
  %4 = getelementptr inbounds i8, ptr %3, i64 8
  %5 = call noundef nonnull align 8 dereferenceable(8) ptr @_ZNSt10_Head_baseILm0EP9lua_StateLb0EE7_M_headERS2_(ptr noundef nonnull align 8 dereferenceable(8) %4) #16
  ret ptr %5
}

; Function Attrs: mustprogress nounwind uwtable
define linkonce_odr dso_local noundef nonnull align 8 dereferenceable(8) ptr @_ZSt3getILm1EJP9lua_StatePFvS1_EEERNSt13tuple_elementIXT_ESt5tupleIJDpT0_EEE4typeERS8_(ptr noundef nonnull align 8 dereferenceable(16) %0) #1 comdat {
  %2 = alloca ptr, align 8
  store ptr %0, ptr %2, align 8
  %3 = load ptr, ptr %2, align 8
  %4 = call noundef nonnull align 8 dereferenceable(8) ptr @_ZSt12__get_helperILm1EPFvP9lua_StateEJEERT0_RSt11_Tuple_implIXT_EJS4_DpT1_EE(ptr noundef nonnull align 8 dereferenceable(8) %3) #16
  ret ptr %4
}

; Function Attrs: mustprogress nounwind uwtable
define linkonce_odr dso_local noundef nonnull align 8 dereferenceable(8) ptr @_ZSt12__get_helperILm0EP9lua_StateJPFvS1_EEERT0_RSt11_Tuple_implIXT_EJS4_DpT1_EE(ptr noundef nonnull align 8 dereferenceable(16) %0) #1 comdat {
  %2 = alloca ptr, align 8
  store ptr %0, ptr %2, align 8
  %3 = load ptr, ptr %2, align 8
  %4 = call noundef nonnull align 8 dereferenceable(8) ptr @_ZNSt11_Tuple_implILm0EJP9lua_StatePFvS1_EEE7_M_headERS4_(ptr noundef nonnull align 8 dereferenceable(16) %3) #16
  ret ptr %4
}

; Function Attrs: mustprogress nounwind uwtable
define linkonce_odr dso_local noundef nonnull align 8 dereferenceable(8) ptr @_ZNSt15__uniq_ptr_implI9lua_StatePFvPS0_EE10_M_deleterEv(ptr noundef nonnull align 8 dereferenceable(16) %0) #1 comdat align 2 {
  %2 = alloca ptr, align 8
  store ptr %0, ptr %2, align 8
  %3 = load ptr, ptr %2, align 8
  %4 = getelementptr inbounds %"class.std::__uniq_ptr_impl", ptr %3, i32 0, i32 0
  %5 = call noundef nonnull align 8 dereferenceable(8) ptr @_ZSt3getILm1EJP9lua_StatePFvS1_EEERNSt13tuple_elementIXT_ESt5tupleIJDpT0_EEE4typeERS8_(ptr noundef nonnull align 8 dereferenceable(16) %4) #16
  ret ptr %5
}

; Function Attrs: mustprogress nounwind uwtable
define linkonce_odr dso_local noundef nonnull align 8 dereferenceable(8) ptr @_ZSt3getILm0EJP9lua_StatePFvS1_EEERNSt13tuple_elementIXT_ESt5tupleIJDpT0_EEE4typeERS8_(ptr noundef nonnull align 8 dereferenceable(16) %0) #1 comdat {
  %2 = alloca ptr, align 8
  store ptr %0, ptr %2, align 8
  %3 = load ptr, ptr %2, align 8
  %4 = call noundef nonnull align 8 dereferenceable(8) ptr @_ZSt12__get_helperILm0EP9lua_StateJPFvS1_EEERT0_RSt11_Tuple_implIXT_EJS4_DpT1_EE(ptr noundef nonnull align 8 dereferenceable(16) %3) #16
  ret ptr %4
}

; Function Attrs: mustprogress nounwind uwtable
define linkonce_odr dso_local noundef nonnull align 8 dereferenceable(8) ptr @_ZNSt10unique_ptrI9lua_StatePFvPS0_EE11get_deleterEv(ptr noundef nonnull align 8 dereferenceable(16) %0) #1 comdat align 2 {
  %2 = alloca ptr, align 8
  store ptr %0, ptr %2, align 8
  %3 = load ptr, ptr %2, align 8
  %4 = getelementptr inbounds %"class.std::unique_ptr", ptr %3, i32 0, i32 0
  %5 = call noundef nonnull align 8 dereferenceable(8) ptr @_ZNSt15__uniq_ptr_implI9lua_StatePFvPS0_EE10_M_deleterEv(ptr noundef nonnull align 8 dereferenceable(16) %4) #16
  ret ptr %5
}

; Function Attrs: mustprogress nounwind uwtable
define linkonce_odr dso_local noundef nonnull align 8 dereferenceable(8) ptr @_ZNSt15__uniq_ptr_implI9lua_StatePFvPS0_EE6_M_ptrEv(ptr noundef nonnull align 8 dereferenceable(16) %0) #1 comdat align 2 {
  %2 = alloca ptr, align 8
  store ptr %0, ptr %2, align 8
  %3 = load ptr, ptr %2, align 8
  %4 = getelementptr inbounds %"class.std::__uniq_ptr_impl", ptr %3, i32 0, i32 0
  %5 = call noundef nonnull align 8 dereferenceable(8) ptr @_ZSt3getILm0EJP9lua_StatePFvS1_EEERNSt13tuple_elementIXT_ESt5tupleIJDpT0_EEE4typeERS8_(ptr noundef nonnull align 8 dereferenceable(16) %4) #16
  ret ptr %5
}

; Function Attrs: mustprogress nounwind uwtable
define linkonce_odr dso_local void @_ZN12ScopedFValueIbED2Ev(ptr noundef nonnull align 8 dereferenceable(9) %0) unnamed_addr #1 comdat align 2 {
  %2 = alloca ptr, align 8
  store ptr %0, ptr %2, align 8
  %3 = load ptr, ptr %2, align 8
  %4 = getelementptr inbounds %struct.ScopedFValue, ptr %3, i32 0, i32 0
  %5 = load ptr, ptr %4, align 8
  %6 = icmp ne ptr %5, null
  br i1 %6, label %7, label %15

7:                                                ; preds = %1
  %8 = getelementptr inbounds %struct.ScopedFValue, ptr %3, i32 0, i32 1
  %9 = load i8, ptr %8, align 8
  %10 = trunc i8 %9 to i1
  %11 = getelementptr inbounds %struct.ScopedFValue, ptr %3, i32 0, i32 0
  %12 = load ptr, ptr %11, align 8
  %13 = getelementptr inbounds %"struct.Luau::FValue", ptr %12, i32 0, i32 0
  %14 = zext i1 %10 to i8
  store i8 %14, ptr %13, align 8
  br label %15

15:                                               ; preds = %7, %1
  ret void
}

; Function Attrs: mustprogress nounwind uwtable
define linkonce_odr dso_local void @_ZNSt10unique_ptrI9lua_StatePFvPS0_EED2Ev(ptr noundef nonnull align 8 dereferenceable(16) %0) unnamed_addr #1 comdat align 2 personality ptr @__gxx_personality_v0 {
  %2 = alloca ptr, align 8
  %3 = alloca ptr, align 8
  store ptr %0, ptr %2, align 8
  %4 = load ptr, ptr %2, align 8
  %5 = getelementptr inbounds %"class.std::unique_ptr", ptr %4, i32 0, i32 0
  %6 = call noundef nonnull align 8 dereferenceable(8) ptr @_ZNSt15__uniq_ptr_implI9lua_StatePFvPS0_EE6_M_ptrEv(ptr noundef nonnull align 8 dereferenceable(16) %5) #16
  store ptr %6, ptr %3, align 8
  %7 = load ptr, ptr %3, align 8
  %8 = load ptr, ptr %7, align 8
  %9 = icmp ne ptr %8, null
  br i1 %9, label %10, label %16

10:                                               ; preds = %1
  %11 = call noundef nonnull align 8 dereferenceable(8) ptr @_ZNSt10unique_ptrI9lua_StatePFvPS0_EE11get_deleterEv(ptr noundef nonnull align 8 dereferenceable(16) %4) #16
  %12 = load ptr, ptr %11, align 8
  %13 = load ptr, ptr %3, align 8
  %14 = load ptr, ptr %13, align 8
  invoke void %12(ptr noundef %14)
          to label %15 unwind label %18

15:                                               ; preds = %10
  br label %16

16:                                               ; preds = %15, %1
  %17 = load ptr, ptr %3, align 8
  store ptr null, ptr %17, align 8
  ret void

18:                                               ; preds = %10
  %19 = landingpad { ptr, i32 }
          catch ptr null
  %20 = extractvalue { ptr, i32 } %19, 0
  call void @__clang_call_terminate(ptr %20) #20
  unreachable
}

; Function Attrs: mustprogress nounwind uwtable
define internal noundef ptr @"_ZZL21DOCTEST_ANON_FUNC_132vENK3$_0cvPFvP9lua_StateEEv"(ptr noundef nonnull align 1 dereferenceable(1) %0) #1 align 2 {
  %2 = alloca ptr, align 8
  store ptr %0, ptr %2, align 8
  ret ptr @"_ZZL21DOCTEST_ANON_FUNC_132vEN3$_08__invokeEP9lua_State"
}

; Function Attrs: mustprogress nounwind uwtable
define linkonce_odr dso_local void @_ZN12ScopedFValueIbEC2ERN4Luau6FValueIbEEb(ptr noundef nonnull align 8 dereferenceable(9) %0, ptr noundef nonnull align 8 dereferenceable(24) %1, i1 noundef zeroext %2) unnamed_addr #1 comdat align 2 {
  %4 = alloca ptr, align 8
  %5 = alloca ptr, align 8
  %6 = alloca i8, align 1
  store ptr %0, ptr %4, align 8
  store ptr %1, ptr %5, align 8
  %7 = zext i1 %2 to i8
  store i8 %7, ptr %6, align 1
  %8 = load ptr, ptr %4, align 8
  %9 = getelementptr inbounds %struct.ScopedFValue, ptr %8, i32 0, i32 0
  store ptr null, ptr %9, align 8
  %10 = getelementptr inbounds %struct.ScopedFValue, ptr %8, i32 0, i32 1
  store i8 0, ptr %10, align 8
  %11 = load ptr, ptr %5, align 8
  %12 = getelementptr inbounds %struct.ScopedFValue, ptr %8, i32 0, i32 0
  store ptr %11, ptr %12, align 8
  %13 = load ptr, ptr %5, align 8
  %14 = getelementptr inbounds %"struct.Luau::FValue", ptr %13, i32 0, i32 0
  %15 = load i8, ptr %14, align 8
  %16 = trunc i8 %15 to i1
  %17 = getelementptr inbounds %struct.ScopedFValue, ptr %8, i32 0, i32 1
  %18 = zext i1 %16 to i8
  store i8 %18, ptr %17, align 8
  %19 = load i8, ptr %6, align 1
  %20 = trunc i8 %19 to i1
  %21 = load ptr, ptr %5, align 8
  %22 = getelementptr inbounds %"struct.Luau::FValue", ptr %21, i32 0, i32 0
  %23 = zext i1 %20 to i8
  store i8 %23, ptr %22, align 8
  ret void
}

; Function Attrs: mustprogress uwtable
define internal void @_ZL21DOCTEST_ANON_FUNC_132v() #4 personality ptr @__gxx_personality_v0 {
  %1 = alloca %struct.ScopedFValue, align 8
  %2 = alloca ptr, align 8
  %3 = alloca %"struct.doctest::detail::Subcase", align 8
  %4 = alloca %"class.doctest::String", align 8
  %5 = alloca ptr, align 8
  %6 = alloca i32, align 4
  %7 = alloca ptr, align 8
  %8 = alloca %"struct.doctest::detail::Subcase", align 8
  %9 = alloca %"class.doctest::String", align 8
  %10 = alloca %"class.std::unique_ptr", align 8
  %11 = alloca %class.anon.735, align 1
  %12 = load i8, ptr @codegen, align 1
  %13 = trunc i8 %12 to i1
  br i1 %13, label %14, label %17

14:                                               ; preds = %0
  %15 = call noundef i32 @_Z22luau_codegen_supportedv()
  %16 = icmp ne i32 %15, 0
  br i1 %16, label %18, label %17

17:                                               ; preds = %14, %0
  br label %55

18:                                               ; preds = %14
  call void @_ZN12ScopedFValueIbEC2ERN4Luau6FValueIbEEb(ptr noundef nonnull align 8 dereferenceable(9) %1, ptr noundef nonnull align 8 dereferenceable(24) @_ZN5FFlag37LuauCodegenFixSplitStoreConstMismatchE, i1 noundef zeroext true)
  invoke void @_ZN7doctest6StringC1EPKc(ptr noundef nonnull align 8 dereferenceable(24) %4, ptr noundef @.str.504)
          to label %19 unwind label %25

19:                                               ; preds = %18
  invoke void @_ZN7doctest6detail7SubcaseC1ERKNS_6StringEPKci(ptr noundef nonnull align 8 dereferenceable(41) %3, ptr noundef nonnull align 8 dereferenceable(24) %4, ptr noundef @.str.65, i32 noundef 2363)
          to label %20 unwind label %29

20:                                               ; preds = %19
  call void @_ZN7doctest6StringD1Ev(ptr noundef nonnull align 8 dereferenceable(24) %4) #16
  store ptr %3, ptr %2, align 8
  %21 = load ptr, ptr %2, align 8
  %22 = invoke noundef zeroext i1 @_ZNK7doctest6detail7SubcasecvbEv(ptr noundef nonnull align 8 dereferenceable(41) %21)
          to label %23 unwind label %33

23:                                               ; preds = %20
  br i1 %22, label %24, label %37

24:                                               ; preds = %23
  store i8 1, ptr @_ZN5FFlag23DebugLuauAbortingChecksE, align 8
  br label %37

25:                                               ; preds = %52, %37, %18
  %26 = landingpad { ptr, i32 }
          cleanup
  %27 = extractvalue { ptr, i32 } %26, 0
  store ptr %27, ptr %5, align 8
  %28 = extractvalue { ptr, i32 } %26, 1
  store i32 %28, ptr %6, align 4
  br label %56

29:                                               ; preds = %19
  %30 = landingpad { ptr, i32 }
          cleanup
  %31 = extractvalue { ptr, i32 } %30, 0
  store ptr %31, ptr %5, align 8
  %32 = extractvalue { ptr, i32 } %30, 1
  store i32 %32, ptr %6, align 4
  call void @_ZN7doctest6StringD1Ev(ptr noundef nonnull align 8 dereferenceable(24) %4) #16
  br label %56

33:                                               ; preds = %20
  %34 = landingpad { ptr, i32 }
          cleanup
  %35 = extractvalue { ptr, i32 } %34, 0
  store ptr %35, ptr %5, align 8
  %36 = extractvalue { ptr, i32 } %34, 1
  store i32 %36, ptr %6, align 4
  call void @_ZN7doctest6detail7SubcaseD1Ev(ptr noundef nonnull align 8 dereferenceable(41) %3) #16
  br label %56

37:                                               ; preds = %24, %23
  call void @_ZN7doctest6detail7SubcaseD1Ev(ptr noundef nonnull align 8 dereferenceable(41) %3) #16
  invoke void @_ZN7doctest6StringC1EPKc(ptr noundef nonnull align 8 dereferenceable(24) %9, ptr noundef @.str.505)
          to label %38 unwind label %25

38:                                               ; preds = %37
  invoke void @_ZN7doctest6detail7SubcaseC1ERKNS_6StringEPKci(ptr noundef nonnull align 8 dereferenceable(41) %8, ptr noundef nonnull align 8 dereferenceable(24) %9, ptr noundef @.str.65, i32 noundef 2368)
          to label %39 unwind label %44

39:                                               ; preds = %38
  call void @_ZN7doctest6StringD1Ev(ptr noundef nonnull align 8 dereferenceable(24) %9) #16
  store ptr %8, ptr %7, align 8
  %40 = load ptr, ptr %7, align 8
  %41 = invoke noundef zeroext i1 @_ZNK7doctest6detail7SubcasecvbEv(ptr noundef nonnull align 8 dereferenceable(41) %40)
          to label %42 unwind label %48

42:                                               ; preds = %39
  br i1 %41, label %43, label %52

43:                                               ; preds = %42
  store i8 0, ptr @_ZN5FFlag23DebugLuauAbortingChecksE, align 8
  br label %52

44:                                               ; preds = %38
  %45 = landingpad { ptr, i32 }
          cleanup
  %46 = extractvalue { ptr, i32 } %45, 0
  store ptr %46, ptr %5, align 8
  %47 = extractvalue { ptr, i32 } %45, 1
  store i32 %47, ptr %6, align 4
  call void @_ZN7doctest6StringD1Ev(ptr noundef nonnull align 8 dereferenceable(24) %9) #16
  br label %56

48:                                               ; preds = %39
  %49 = landingpad { ptr, i32 }
          cleanup
  %50 = extractvalue { ptr, i32 } %49, 0
  store ptr %50, ptr %5, align 8
  %51 = extractvalue { ptr, i32 } %49, 1
  store i32 %51, ptr %6, align 4
  call void @_ZN7doctest6detail7SubcaseD1Ev(ptr noundef nonnull align 8 dereferenceable(41) %8) #16
  br label %56

52:                                               ; preds = %43, %42
  call void @_ZN7doctest6detail7SubcaseD1Ev(ptr noundef nonnull align 8 dereferenceable(41) %8) #16
  %53 = call noundef ptr @"_ZZL21DOCTEST_ANON_FUNC_132vENK3$_0cvPFvP9lua_StateEEv"(ptr noundef nonnull align 1 dereferenceable(1) %11) #16
  invoke void @_ZL14runConformancePKcPFvP9lua_StateES4_S2_P18lua_CompileOptionsbPN4Luau7CodeGen18CompilationOptionsE(ptr dead_on_unwind writable sret(%"class.std::unique_ptr") align 8 %10, ptr noundef @.str.506, ptr noundef %53, ptr noundef null, ptr noundef null, ptr noundef null, i1 noundef zeroext false, ptr noundef null)
          to label %54 unwind label %25

54:                                               ; preds = %52
  call void @_ZNSt10unique_ptrI9lua_StatePFvPS0_EED2Ev(ptr noundef nonnull align 8 dereferenceable(16) %10) #16
  call void @_ZN12ScopedFValueIbED2Ev(ptr noundef nonnull align 8 dereferenceable(9) %1) #16
  br label %55

55:                                               ; preds = %54, %17
  ret void

56:                                               ; preds = %48, %44, %33, %29, %25
  call void @_ZN12ScopedFValueIbED2Ev(ptr noundef nonnull align 8 dereferenceable(9) %1) #16
  br label %57

57:                                               ; preds = %56
  %58 = load ptr, ptr %5, align 8
  %59 = load i32, ptr %6, align 4
  %60 = insertvalue { ptr, i32 } poison, ptr %58, 0
  %61 = insertvalue { ptr, i32 } %60, i32 %59, 1
  resume { ptr, i32 } %61
}