; Function Attrs: mustprogress uwtable
define internal void @_ZL21DOCTEST_ANON_FUNC_132v() #4 personality ptr @__gxx_personality_v0 {
  %1 = alloca %"struct.doctest::detail::Subcase", align 8
  %2 = alloca %"class.doctest::String", align 8
  %3 = alloca %"struct.doctest::detail::Subcase", align 8
  %4 = alloca %"class.doctest::String", align 8
  %5 = alloca %"class.std::unique_ptr", align 8
  %6 = load i8, ptr @codegen, align 1
  %7 = trunc i8 %6 to i1
  br i1 %7, label %8, label %43

8:                                                ; preds = %0
  %9 = tail call noundef i32 @_Z22luau_codegen_supportedv()
  %.not = icmp eq i32 %9, 0
  br i1 %.not, label %43, label %10

10:                                               ; preds = %8
  %11 = load i8, ptr @_ZN5FFlag37LuauCodegenFixSplitStoreConstMismatchE, align 8
  %12 = and i8 %11, 1
  store i8 1, ptr @_ZN5FFlag37LuauCodegenFixSplitStoreConstMismatchE, align 8
  invoke void @_ZN7doctest6StringC1EPKc(ptr noundef nonnull align 8 dereferenceable(24) %2, ptr noundef nonnull @.str.504)
          to label %13 unwind label %18

13:                                               ; preds = %10
  invoke void @_ZN7doctest6detail7SubcaseC1ERKNS_6StringEPKci(ptr noundef nonnull align 8 dereferenceable(41) %1, ptr noundef nonnull align 8 dereferenceable(24) %2, ptr noundef nonnull @.str.65, i32 noundef 2363)
          to label %14 unwind label %20

14:                                               ; preds = %13
  call void @_ZN7doctest6StringD1Ev(ptr noundef nonnull align 8 dereferenceable(24) %2) #35
  %15 = invoke noundef zeroext i1 @_ZNK7doctest6detail7SubcasecvbEv(ptr noundef nonnull align 8 dereferenceable(41) %1)
          to label %16 unwind label %22

16:                                               ; preds = %14
  br i1 %15, label %17, label %24

17:                                               ; preds = %16
  store i8 1, ptr @_ZN5FFlag23DebugLuauAbortingChecksE, align 8
  br label %24

18:                                               ; preds = %34, %24, %10
  %19 = landingpad { ptr, i32 }
          cleanup
  br label %_ZN12ScopedFValueIbED2Ev.exit7

20:                                               ; preds = %13
  %21 = landingpad { ptr, i32 }
          cleanup
  call void @_ZN7doctest6StringD1Ev(ptr noundef nonnull align 8 dereferenceable(24) %2) #35
  br label %_ZN12ScopedFValueIbED2Ev.exit7

22:                                               ; preds = %14
  %23 = landingpad { ptr, i32 }
          cleanup
  call void @_ZN7doctest6detail7SubcaseD1Ev(ptr noundef nonnull align 8 dereferenceable(41) %1) #35
  br label %_ZN12ScopedFValueIbED2Ev.exit7

24:                                               ; preds = %17, %16
  call void @_ZN7doctest6detail7SubcaseD1Ev(ptr noundef nonnull align 8 dereferenceable(41) %1) #35
  invoke void @_ZN7doctest6StringC1EPKc(ptr noundef nonnull align 8 dereferenceable(24) %4, ptr noundef nonnull @.str.505)
          to label %25 unwind label %18

25:                                               ; preds = %24
  invoke void @_ZN7doctest6detail7SubcaseC1ERKNS_6StringEPKci(ptr noundef nonnull align 8 dereferenceable(41) %3, ptr noundef nonnull align 8 dereferenceable(24) %4, ptr noundef nonnull @.str.65, i32 noundef 2368)
          to label %26 unwind label %30

26:                                               ; preds = %25
  call void @_ZN7doctest6StringD1Ev(ptr noundef nonnull align 8 dereferenceable(24) %4) #35
  %27 = invoke noundef zeroext i1 @_ZNK7doctest6detail7SubcasecvbEv(ptr noundef nonnull align 8 dereferenceable(41) %3)
          to label %28 unwind label %32

28:                                               ; preds = %26
  br i1 %27, label %29, label %34

29:                                               ; preds = %28
  store i8 0, ptr @_ZN5FFlag23DebugLuauAbortingChecksE, align 8
  br label %34

30:                                               ; preds = %25
  %31 = landingpad { ptr, i32 }
          cleanup
  call void @_ZN7doctest6StringD1Ev(ptr noundef nonnull align 8 dereferenceable(24) %4) #35
  br label %_ZN12ScopedFValueIbED2Ev.exit7

32:                                               ; preds = %26
  %33 = landingpad { ptr, i32 }
          cleanup
  call void @_ZN7doctest6detail7SubcaseD1Ev(ptr noundef nonnull align 8 dereferenceable(41) %3) #35
  br label %_ZN12ScopedFValueIbED2Ev.exit7

34:                                               ; preds = %29, %28
  call void @_ZN7doctest6detail7SubcaseD1Ev(ptr noundef nonnull align 8 dereferenceable(41) %3) #35
  invoke fastcc void @_ZL14runConformancePKcPFvP9lua_StateES4_S2_P18lua_CompileOptionsbPN4Luau7CodeGen18CompilationOptionsE(ptr dead_on_unwind noalias nonnull writable align 8 %5, ptr noundef nonnull @.str.506, ptr noundef nonnull @"_ZZL21DOCTEST_ANON_FUNC_132vEN3$_08__invokeEP9lua_State", ptr noundef null, ptr noundef null, ptr noundef null, i1 noundef zeroext false, ptr noundef null)
          to label %35 unwind label %18

35:                                               ; preds = %34
  %36 = getelementptr inbounds i8, ptr %5, i64 8
  %37 = load ptr, ptr %36, align 8
  %.not.i = icmp eq ptr %37, null
  br i1 %.not.i, label %_ZN12ScopedFValueIbED2Ev.exit, label %38

38:                                               ; preds = %35
  %39 = load ptr, ptr %5, align 8
  invoke void %39(ptr noundef nonnull %37)
          to label %_ZN12ScopedFValueIbED2Ev.exit unwind label %40

40:                                               ; preds = %38
  %41 = landingpad { ptr, i32 }
          catch ptr null
  %42 = extractvalue { ptr, i32 } %41, 0
  call void @__clang_call_terminate(ptr %42) #36
  unreachable

_ZN12ScopedFValueIbED2Ev.exit:                    ; preds = %35, %38
  store i8 %12, ptr @_ZN5FFlag37LuauCodegenFixSplitStoreConstMismatchE, align 8
  br label %43

43:                                               ; preds = %0, %8, %_ZN12ScopedFValueIbED2Ev.exit
  ret void

_ZN12ScopedFValueIbED2Ev.exit7:                   ; preds = %32, %30, %22, %20, %18
  %.pn = phi { ptr, i32 } [ %19, %18 ], [ %33, %32 ], [ %31, %30 ], [ %23, %22 ], [ %21, %20 ]
  store i8 %12, ptr @_ZN5FFlag37LuauCodegenFixSplitStoreConstMismatchE, align 8
  resume { ptr, i32 } %.pn
}